; Function Attrs: mustprogress nounwind uwtable
define void @unumf_close_77(ptr noundef %0) local_unnamed_addr #0 {
  %2 = icmp eq ptr %0, null
  br i1 %2, label %_ZN6icu_7713IcuCApiHelperI16UNumberFormatterNS_6number4impl20UNumberFormatterDataELi1313231360EE8validateEPS1_R10UErrorCode.exit.thread, label %3

3:                                                ; preds = %1
  %4 = load i32, ptr %0, align 4, !tbaa !51
  %.not9.i.i = icmp eq i32 %4, 1313231360
  br i1 %.not9.i.i, label %_ZN6icu_7713IcuCApiHelperI16UNumberFormatterNS_6number4impl20UNumberFormatterDataELi1313231360EE8validateEPS1_R10UErrorCode.exit, label %_ZN6icu_7713IcuCApiHelperI16UNumberFormatterNS_6number4impl20UNumberFormatterDataELi1313231360EE8validateEPS1_R10UErrorCode.exit.thread

_ZN6icu_7713IcuCApiHelperI16UNumberFormatterNS_6number4impl20UNumberFormatterDataELi1313231360EE8validateEPS1_R10UErrorCode.exit: ; preds = %3
  %5 = getelementptr inbounds nuw i8, ptr %0, i64 8
  tail call void @_ZN6icu_776number24LocalizedNumberFormatterD1Ev(ptr noundef nonnull align 8 dereferenceable(496) %5) #15
  store i32 0, ptr %0, align 4, !tbaa !51
  tail call void @_ZN6icu_777UMemorydlEPv(ptr noundef nonnull %0) #15
  br label %_ZN6icu_7713IcuCApiHelperI16UNumberFormatterNS_6number4impl20UNumberFormatterDataELi1313231360EE8validateEPS1_R10UErrorCode.exit.thread

_ZN6icu_7713IcuCApiHelperI16UNumberFormatterNS_6number4impl20UNumberFormatterDataELi1313231360EE8validateEPS1_R10UErrorCode.exit.thread: ; preds = %3, %1, %_ZN6icu_7713IcuCApiHelperI16UNumberFormatterNS_6number4impl20UNumberFormatterDataELi1313231360EE8validateEPS1_R10UErrorCode.exit
  ret void
}